; Function Attrs: nounwind uwtable
define zeroext i8 @l_Lean_MacroScopesView_isPrefixOf(ptr noundef readonly captures(none) %0, ptr noundef readonly captures(none) %1) local_unnamed_addr #2 {
  %3 = getelementptr inbounds nuw i8, ptr %0, i64 8
  %4 = load ptr, ptr %3, align 8, !tbaa !9
  %5 = getelementptr inbounds nuw i8, ptr %1, i64 8
  %6 = load ptr, ptr %5, align 8, !tbaa !9
  %7 = tail call zeroext i8 @l_Lean_Name_isPrefixOf(ptr noundef %4, ptr noundef %6) #6
  %8 = icmp eq i8 %7, 0
  br i1 %8, label %l_List_beq___at_Lean_MacroScopesView_isPrefixOf___spec__1.exit.thread, label %9

9:                                                ; preds = %2
  %10 = getelementptr inbounds nuw i8, ptr %0, i64 32
  %11 = load ptr, ptr %10, align 8, !tbaa !9
  %12 = getelementptr inbounds nuw i8, ptr %1, i64 32
  %13 = load ptr, ptr %12, align 8, !tbaa !9
  br label %.backedge.i

.backedge.i:                                      ; preds = %.backedge.i.backedge, %9
  %.020.i = phi ptr [ %13, %9 ], [ %48, %.backedge.i.backedge ]
  %.018.i = phi ptr [ %11, %9 ], [ %44, %.backedge.i.backedge ]
  %14 = ptrtoint ptr %.018.i to i64
  %15 = and i64 %14, 1
  %.not.i.i = icmp eq i64 %15, 0
  br i1 %.not.i.i, label %19, label %16

16:                                               ; preds = %.backedge.i
  %17 = lshr i64 %14, 1
  %18 = trunc i64 %17 to i32
  br label %lean_obj_tag.exit.i

19:                                               ; preds = %.backedge.i
  %20 = getelementptr i8, ptr %.018.i, i64 4
  %.val.i.i = load i32, ptr %20, align 4
  %21 = lshr i32 %.val.i.i, 24
  br label %lean_obj_tag.exit.i

lean_obj_tag.exit.i:                              ; preds = %19, %16
  %.0.i23.i = phi i32 [ %18, %16 ], [ %21, %19 ]
  %22 = icmp eq i32 %.0.i23.i, 0
  %23 = ptrtoint ptr %.020.i to i64
  %24 = and i64 %23, 1
  %.not.i24.i = icmp eq i64 %24, 0
  br i1 %22, label %25, label %32

25:                                               ; preds = %lean_obj_tag.exit.i
  br i1 %.not.i24.i, label %29, label %26

26:                                               ; preds = %25
  %27 = lshr i64 %23, 1
  %28 = trunc i64 %27 to i32
  br label %l_List_beq___at_Lean_MacroScopesView_isPrefixOf___spec__1.exit

29:                                               ; preds = %25
  %30 = getelementptr i8, ptr %.020.i, i64 4
  %.val.i26.i = load i32, ptr %30, align 4
  %31 = lshr i32 %.val.i26.i, 24
  br label %l_List_beq___at_Lean_MacroScopesView_isPrefixOf___spec__1.exit

32:                                               ; preds = %lean_obj_tag.exit.i
  br i1 %.not.i24.i, label %36, label %33

33:                                               ; preds = %32
  %34 = lshr i64 %23, 1
  %35 = trunc i64 %34 to i32
  br label %lean_obj_tag.exit31.i

36:                                               ; preds = %32
  %37 = getelementptr i8, ptr %.020.i, i64 4
  %.val.i30.i = load i32, ptr %37, align 4
  %38 = lshr i32 %.val.i30.i, 24
  br label %lean_obj_tag.exit31.i

lean_obj_tag.exit31.i:                            ; preds = %36, %33
  %.0.i29.i = phi i32 [ %35, %33 ], [ %38, %36 ]
  %39 = icmp eq i32 %.0.i29.i, 0
  br i1 %39, label %l_List_beq___at_Lean_MacroScopesView_isPrefixOf___spec__1.exit.thread, label %40

40:                                               ; preds = %lean_obj_tag.exit31.i
  %41 = getelementptr inbounds nuw i8, ptr %.018.i, i64 8
  %42 = load ptr, ptr %41, align 8, !tbaa !9
  %43 = getelementptr inbounds nuw i8, ptr %.018.i, i64 16
  %44 = load ptr, ptr %43, align 8, !tbaa !9
  %45 = getelementptr inbounds nuw i8, ptr %.020.i, i64 8
  %46 = load ptr, ptr %45, align 8, !tbaa !9
  %47 = getelementptr inbounds nuw i8, ptr %.020.i, i64 16
  %48 = load ptr, ptr %47, align 8, !tbaa !9
  %49 = ptrtoint ptr %42 to i64
  %50 = and i64 %49, 1
  %51 = icmp ne i64 %50, 0
  %52 = ptrtoint ptr %46 to i64
  %53 = and i64 %52, 1
  %54 = icmp ne i64 %53, 0
  %or.cond.i = select i1 %51, i1 %54, i1 false
  br i1 %or.cond.i, label %55, label %lean_nat_eq.exit.i, !prof !18

55:                                               ; preds = %40
  %56 = icmp eq ptr %42, %46
  br i1 %56, label %.backedge.i.backedge, label %l_List_beq___at_Lean_MacroScopesView_isPrefixOf___spec__1.exit.thread

lean_nat_eq.exit.i:                               ; preds = %40
  %57 = tail call zeroext i1 @lean_nat_big_eq(ptr noundef %42, ptr noundef %46) #6
  br i1 %57, label %.backedge.i.backedge, label %l_List_beq___at_Lean_MacroScopesView_isPrefixOf___spec__1.exit.thread

.backedge.i.backedge:                             ; preds = %lean_nat_eq.exit.i, %55
  br label %.backedge.i

l_List_beq___at_Lean_MacroScopesView_isPrefixOf___spec__1.exit: ; preds = %26, %29
  %.0.i25.i = phi i32 [ %28, %26 ], [ %31, %29 ]
  %.not = icmp eq i32 %.0.i25.i, 0
  br i1 %.not, label %58, label %l_List_beq___at_Lean_MacroScopesView_isPrefixOf___spec__1.exit.thread

58:                                               ; preds = %l_List_beq___at_Lean_MacroScopesView_isPrefixOf___spec__1.exit
  %59 = getelementptr inbounds nuw i8, ptr %0, i64 24
  %60 = load ptr, ptr %59, align 8, !tbaa !9
  %61 = getelementptr inbounds nuw i8, ptr %1, i64 24
  %62 = load ptr, ptr %61, align 8, !tbaa !9
  %63 = tail call zeroext i8 @lean_name_eq(ptr noundef %60, ptr noundef %62) #6
  %64 = icmp eq i8 %63, 0
  br i1 %64, label %l_List_beq___at_Lean_MacroScopesView_isPrefixOf___spec__1.exit.thread, label %65

65:                                               ; preds = %58
  %66 = getelementptr inbounds nuw i8, ptr %0, i64 16
  %67 = load ptr, ptr %66, align 8, !tbaa !9
  %68 = getelementptr inbounds nuw i8, ptr %1, i64 16
  %69 = load ptr, ptr %68, align 8, !tbaa !9
  %70 = tail call zeroext i8 @lean_name_eq(ptr noundef %67, ptr noundef %69) #6
  br label %l_List_beq___at_Lean_MacroScopesView_isPrefixOf___spec__1.exit.thread

l_List_beq___at_Lean_MacroScopesView_isPrefixOf___spec__1.exit.thread: ; preds = %lean_nat_eq.exit.i, %lean_obj_tag.exit31.i, %55, %l_List_beq___at_Lean_MacroScopesView_isPrefixOf___spec__1.exit, %58, %65, %2
  %.0 = phi i8 [ 0, %2 ], [ 0, %l_List_beq___at_Lean_MacroScopesView_isPrefixOf___spec__1.exit ], [ %70, %65 ], [ 0, %58 ], [ 0, %55 ], [ 0, %lean_obj_tag.exit31.i ], [ 0, %lean_nat_eq.exit.i ]
  ret i8 %.0
}